
q4:	file format mach-o arm64

Disassembly of section __TEXT,__text:

0000000100000460 <_main>:
100000460: d10203ff    	sub	sp, sp, #0x80
100000464: a9077bfd    	stp	x29, x30, [sp, #0x70]
100000468: 9101c3fd    	add	x29, sp, #0x70
10000046c: 90000028    	adrp	x8, 0x100004000 <_scanf+0x100004000>
100000470: f9400908    	ldr	x8, [x8, #0x10]
100000474: f9400108    	ldr	x8, [x8]
100000478: f81f83a8    	stur	x8, [x29, #-0x8]
10000047c: b81e43bf    	stur	wzr, [x29, #-0x1c]
100000480: 14000001    	b	0x100000484 <_main+0x24>
100000484: 910003e9    	mov	x9, sp
100000488: d1008ba8    	sub	x8, x29, #0x22
10000048c: f9000128    	str	x8, [x9]
100000490: d100a3a8    	sub	x8, x29, #0x28
100000494: f9000528    	str	x8, [x9, #0x8]
100000498: d100b3a8    	sub	x8, x29, #0x2c
10000049c: f9000928    	str	x8, [x9, #0x10]
1000004a0: 90000000    	adrp	x0, 0x100000000 <_scanf+0x100000000>
1000004a4: 91170000    	add	x0, x0, #0x5c0
1000004a8: 94000043    	bl	0x1000005b4 <_scanf+0x1000005b4>
1000004ac: 71000c08    	subs	w8, w0, #0x3
1000004b0: 54000461    	b.ne	0x10000053c <_main+0xdc>
1000004b4: 14000001    	b	0x1000004b8 <_main+0x58>
1000004b8: 910003e9    	mov	x9, sp
1000004bc: d1008ba8    	sub	x8, x29, #0x22
1000004c0: f90017e8    	str	x8, [sp, #0x28]
1000004c4: f9000128    	str	x8, [x9]
1000004c8: d10063a0    	sub	x0, x29, #0x18
1000004cc: f90013e0    	str	x0, [sp, #0x20]
1000004d0: d2800203    	mov	x3, #0x10               ; =16
1000004d4: aa0303e1    	mov	x1, x3
1000004d8: 52800002    	mov	w2, #0x0                ; =0
1000004dc: 90000004    	adrp	x4, 0x100000000 <_scanf+0x100000000>
1000004e0: 91172884    	add	x4, x4, #0x5ca
1000004e4: 94000022    	bl	0x10000056c <_scanf+0x10000056c>
1000004e8: f94013e0    	ldr	x0, [sp, #0x20]
1000004ec: 52800021    	mov	w1, #0x1                ; =1
1000004f0: 94000028    	bl	0x100000590 <_scanf+0x100000590>
1000004f4: f94017e1    	ldr	x1, [sp, #0x28]
1000004f8: f9001fe0    	str	x0, [sp, #0x38]
1000004fc: f9401fe0    	ldr	x0, [sp, #0x38]
100000500: 94000027    	bl	0x10000059c <_scanf+0x10000059c>
100000504: f9001be0    	str	x0, [sp, #0x30]
100000508: f9401be8    	ldr	x8, [sp, #0x30]
10000050c: b85d83a0    	ldur	w0, [x29, #-0x28]
100000510: b85d43a1    	ldur	w1, [x29, #-0x2c]
100000514: d63f0100    	blr	x8
100000518: 910003e9    	mov	x9, sp
10000051c: aa0003e8    	mov	x8, x0
100000520: f9000128    	str	x8, [x9]
100000524: 90000000    	adrp	x0, 0x100000000 <_scanf+0x100000000>
100000528: 91175400    	add	x0, x0, #0x5d5
10000052c: 9400001f    	bl	0x1000005a8 <_scanf+0x1000005a8>
100000530: f9401fe0    	ldr	x0, [sp, #0x38]
100000534: 94000014    	bl	0x100000584 <_scanf+0x100000584>
100000538: 17ffffd3    	b	0x100000484 <_main+0x24>
10000053c: f85f83a9    	ldur	x9, [x29, #-0x8]
100000540: 90000028    	adrp	x8, 0x100004000 <_scanf+0x100004000>
100000544: f9400908    	ldr	x8, [x8, #0x10]
100000548: f9400108    	ldr	x8, [x8]
10000054c: eb090108    	subs	x8, x8, x9
100000550: 54000060    	b.eq	0x10000055c <_main+0xfc>
100000554: 14000001    	b	0x100000558 <_main+0xf8>
100000558: 94000008    	bl	0x100000578 <_scanf+0x100000578>
10000055c: 52800000    	mov	w0, #0x0                ; =0
100000560: a9477bfd    	ldp	x29, x30, [sp, #0x70]
100000564: 910203ff    	add	sp, sp, #0x80
100000568: d65f03c0    	ret

Disassembly of section __TEXT,__stubs:

000000010000056c <__stubs>:
10000056c: 90000030    	adrp	x16, 0x100004000 <_scanf+0x100004000>
100000570: f9400210    	ldr	x16, [x16]
100000574: d61f0200    	br	x16
100000578: 90000030    	adrp	x16, 0x100004000 <_scanf+0x100004000>
10000057c: f9400610    	ldr	x16, [x16, #0x8]
100000580: d61f0200    	br	x16
100000584: 90000030    	adrp	x16, 0x100004000 <_scanf+0x100004000>
100000588: f9400e10    	ldr	x16, [x16, #0x18]
10000058c: d61f0200    	br	x16
100000590: 90000030    	adrp	x16, 0x100004000 <_scanf+0x100004000>
100000594: f9401210    	ldr	x16, [x16, #0x20]
100000598: d61f0200    	br	x16
10000059c: 90000030    	adrp	x16, 0x100004000 <_scanf+0x100004000>
1000005a0: f9401610    	ldr	x16, [x16, #0x28]
1000005a4: d61f0200    	br	x16
1000005a8: 90000030    	adrp	x16, 0x100004000 <_scanf+0x100004000>
1000005ac: f9401a10    	ldr	x16, [x16, #0x30]
1000005b0: d61f0200    	br	x16
1000005b4: 90000030    	adrp	x16, 0x100004000 <_scanf+0x100004000>
1000005b8: f9401e10    	ldr	x16, [x16, #0x38]
1000005bc: d61f0200    	br	x16
